target datalayout = "e-m:e-p270:32:32-p271:32:32-p272:64:64-i64:64-i128:128-f80:128-n8:16:32:64-S128"
target triple = "x86_64-pc-linux-gnu"

%struct.AVFilterContext = type { ptr, ptr, ptr, ptr, ptr, i32, ptr, ptr, i32, ptr, ptr, i32, i32, ptr, ptr, ptr, ptr, i32, ptr, i32, i32 }
%struct.FFTdnoizContext = type { ptr, float, float, i32, float, i32, i32, i32, i32, i32, ptr, ptr, ptr, i32, i32, i32, [4 x %struct.PlaneContext], [256 x [256 x float]], [32 x ptr], [32 x ptr], [32 x ptr], [32 x ptr], ptr, ptr, ptr, ptr, ptr, ptr }
%struct.PlaneContext = type { i32, i32, i32, i32, i32, i32, float, [32 x [3 x ptr]], [32 x ptr], [32 x ptr], [32 x ptr], [32 x ptr], i32, i32 }
%struct.AVFilterLink = type { ptr, ptr, ptr, ptr, i32, i32, i32, i32, %struct.AVRational, i32, i32, i32, %struct.AVChannelLayout, %struct.AVRational, ptr, i32, %struct.AVFilterFormatsConfig, %struct.AVFilterFormatsConfig }
%struct.AVChannelLayout = type { i32, i32, %union.anon.1, ptr }
%union.anon.1 = type { i64 }
%struct.AVRational = type { i32, i32 }
%struct.AVFilterFormatsConfig = type { ptr, ptr, ptr, ptr, ptr }

; Function Attrs: nounwind uwtable
define internal i32 @request_frame(ptr noundef %0) #2 {
  %2 = alloca i32, align 4
  %3 = alloca ptr, align 8
  %4 = alloca ptr, align 8
  %5 = alloca ptr, align 8
  %6 = alloca i32, align 4
  %7 = alloca ptr, align 8
  %8 = alloca i32, align 4
  store ptr %0, ptr %3, align 8, !tbaa !35
  call void @llvm.lifetime.start.p0(i64 8, ptr %4) #11
  %9 = load ptr, ptr %3, align 8, !tbaa !35
  %10 = getelementptr inbounds nuw %struct.AVFilterLink, ptr %9, i32 0, i32 0
  %11 = load ptr, ptr %10, align 8, !tbaa !161
  store ptr %11, ptr %4, align 8, !tbaa !4
  call void @llvm.lifetime.start.p0(i64 8, ptr %5) #11
  %12 = load ptr, ptr %4, align 8, !tbaa !4
  %13 = getelementptr inbounds nuw %struct.AVFilterContext, ptr %12, i32 0, i32 9
  %14 = load ptr, ptr %13, align 8, !tbaa !9
  store ptr %14, ptr %5, align 8, !tbaa !22
  call void @llvm.lifetime.start.p0(i64 4, ptr %6) #11
  store i32 0, ptr %6, align 4, !tbaa !24
  %15 = load ptr, ptr %4, align 8, !tbaa !4
  %16 = getelementptr inbounds nuw %struct.AVFilterContext, ptr %15, i32 0, i32 4
  %17 = load ptr, ptr %16, align 8, !tbaa !162
  %18 = getelementptr inbounds ptr, ptr %17, i64 0
  %19 = load ptr, ptr %18, align 8, !tbaa !35
  %20 = call i32 @ff_request_frame(ptr noundef %19)
  store i32 %20, ptr %6, align 4, !tbaa !24
  %21 = load i32, ptr %6, align 4, !tbaa !24
  %22 = icmp eq i32 %21, -541478725
  br i1 %22, label %23, label %79

23:                                               ; preds = %1
  %24 = load ptr, ptr %5, align 8, !tbaa !22
  %25 = getelementptr inbounds nuw %struct.FFTdnoizContext, ptr %24, i32 0, i32 8
  %26 = load i32, ptr %25, align 4, !tbaa !47
  %27 = icmp sgt i32 %26, 0
  br i1 %27, label %28, label %79

28:                                               ; preds = %23
  call void @llvm.lifetime.start.p0(i64 8, ptr %7) #11
  %29 = load ptr, ptr %5, align 8, !tbaa !22
  %30 = getelementptr inbounds nuw %struct.FFTdnoizContext, ptr %29, i32 0, i32 12
  %31 = load ptr, ptr %30, align 8, !tbaa !51
  %32 = icmp ne ptr %31, null
  br i1 %32, label %33, label %43

33:                                               ; preds = %28
  %34 = load ptr, ptr %5, align 8, !tbaa !22
  %35 = getelementptr inbounds nuw %struct.FFTdnoizContext, ptr %34, i32 0, i32 8
  %36 = load i32, ptr %35, align 4, !tbaa !47
  %37 = icmp sgt i32 %36, 0
  br i1 %37, label %38, label %43

38:                                               ; preds = %33
  %39 = load ptr, ptr %5, align 8, !tbaa !22
  %40 = getelementptr inbounds nuw %struct.FFTdnoizContext, ptr %39, i32 0, i32 12
  %41 = load ptr, ptr %40, align 8, !tbaa !51
  %42 = call ptr @av_frame_clone(ptr noundef %41)
  store ptr %42, ptr %7, align 8, !tbaa !37
  br label %59

43:                                               ; preds = %33, %28
  %44 = load ptr, ptr %5, align 8, !tbaa !22
  %45 = getelementptr inbounds nuw %struct.FFTdnoizContext, ptr %44, i32 0, i32 11
  %46 = load ptr, ptr %45, align 8, !tbaa !49
  %47 = icmp ne ptr %46, null
  br i1 %47, label %48, label %53

48:                                               ; preds = %43
  %49 = load ptr, ptr %5, align 8, !tbaa !22
  %50 = getelementptr inbounds nuw %struct.FFTdnoizContext, ptr %49, i32 0, i32 11
  %51 = load ptr, ptr %50, align 8, !tbaa !49
  %52 = call ptr @av_frame_clone(ptr noundef %51)
  store ptr %52, ptr %7, align 8, !tbaa !37
  br label %58

53:                                               ; preds = %43
  %54 = load ptr, ptr %5, align 8, !tbaa !22
  %55 = getelementptr inbounds nuw %struct.FFTdnoizContext, ptr %54, i32 0, i32 10
  %56 = load ptr, ptr %55, align 8, !tbaa !50
  %57 = call ptr @av_frame_clone(ptr noundef %56)
  store ptr %57, ptr %7, align 8, !tbaa !37
  br label %58

58:                                               ; preds = %53, %48
  br label %59

59:                                               ; preds = %58, %38
  %60 = load ptr, ptr %7, align 8, !tbaa !37
  %61 = icmp ne ptr %60, null
  br i1 %61, label %63, label %62

62:                                               ; preds = %59
  store i32 -12, ptr %2, align 4
  store i32 1, ptr %8, align 4
  br label %76

63:                                               ; preds = %59
  %64 = load ptr, ptr %4, align 8, !tbaa !4
  %65 = getelementptr inbounds nuw %struct.AVFilterContext, ptr %64, i32 0, i32 4
  %66 = load ptr, ptr %65, align 8, !tbaa !162
  %67 = getelementptr inbounds ptr, ptr %66, i64 0
  %68 = load ptr, ptr %67, align 8, !tbaa !35
  %69 = load ptr, ptr %7, align 8, !tbaa !37
  %70 = call i32 @filter_frame(ptr noundef %68, ptr noundef %69)
  store i32 %70, ptr %6, align 4, !tbaa !24
  %71 = load i32, ptr %6, align 4, !tbaa !24
  %72 = icmp slt i32 %71, 0
  br i1 %72, label %73, label %75

73:                                               ; preds = %63
  %74 = load i32, ptr %6, align 4, !tbaa !24
  store i32 %74, ptr %2, align 4
  store i32 1, ptr %8, align 4
  br label %76

75:                                               ; preds = %63
  store i32 -541478725, ptr %6, align 4, !tbaa !24
  store i32 0, ptr %8, align 4
  br label %76

76:                                               ; preds = %75, %73, %62
  call void @llvm.lifetime.end.p0(i64 8, ptr %7) #11
  %77 = load i32, ptr %8, align 4
  switch i32 %77, label %81 [
    i32 0, label %78
  ]

78:                                               ; preds = %76
  br label %79

79:                                               ; preds = %78, %23, %1
  %80 = load i32, ptr %6, align 4, !tbaa !24
  store i32 %80, ptr %2, align 4
  store i32 1, ptr %8, align 4
  br label %81

81:                                               ; preds = %79, %76
  call void @llvm.lifetime.end.p0(i64 4, ptr %6) #11
  call void @llvm.lifetime.end.p0(i64 8, ptr %5) #11
  call void @llvm.lifetime.end.p0(i64 8, ptr %4) #11
  %82 = load i32, ptr %2, align 4
  ret i32 %82
}