; Function Attrs: nounwind uwtable
define internal i32 @request_frame(ptr noundef readonly captures(none) %0) #2 {
  %2 = load ptr, ptr %0, align 8, !tbaa !147
  %3 = getelementptr inbounds nuw i8, ptr %2, i64 72
  %4 = load ptr, ptr %3, align 8, !tbaa !4
  %5 = getelementptr inbounds nuw i8, ptr %2, i64 32
  %6 = load ptr, ptr %5, align 8, !tbaa !148
  %7 = load ptr, ptr %6, align 8, !tbaa !38
  %8 = tail call i32 @ff_request_frame(ptr noundef %7) #9
  %9 = icmp eq i32 %8, -541478725
  br i1 %9, label %10, label %.thread

10:                                               ; preds = %1
  %11 = getelementptr inbounds nuw i8, ptr %4, i64 36
  %12 = load i32, ptr %11, align 4, !tbaa !40
  %13 = icmp sgt i32 %12, 0
  br i1 %13, label %14, label %.thread

14:                                               ; preds = %10
  %15 = getelementptr inbounds nuw i8, ptr %4, i64 64
  %16 = load ptr, ptr %15, align 8, !tbaa !44
  %.not = icmp eq ptr %16, null
  br i1 %.not, label %17, label %23

17:                                               ; preds = %14
  %18 = getelementptr inbounds nuw i8, ptr %4, i64 56
  %19 = load ptr, ptr %18, align 8, !tbaa !42
  %.not27 = icmp eq ptr %19, null
  br i1 %.not27, label %20, label %23

20:                                               ; preds = %17
  %21 = getelementptr inbounds nuw i8, ptr %4, i64 48
  %22 = load ptr, ptr %21, align 8, !tbaa !43
  br label %23

23:                                               ; preds = %17, %14, %20
  %.sink = phi ptr [ %22, %20 ], [ %16, %14 ], [ %19, %17 ]
  %24 = tail call ptr @av_frame_clone(ptr noundef %.sink) #9
  %.not28 = icmp eq ptr %24, null
  br i1 %.not28, label %.thread, label %25

25:                                               ; preds = %23
  %26 = load ptr, ptr %5, align 8, !tbaa !148
  %27 = load ptr, ptr %26, align 8, !tbaa !38
  %28 = tail call i32 @filter_frame(ptr noundef %27, ptr noundef nonnull %24)
  %.fr = freeze i32 %28
  %29 = icmp sgt i32 %.fr, -1
  %spec.select = select i1 %29, i32 -541478725, i32 %.fr
  br label %.thread

.thread:                                          ; preds = %25, %23, %1, %10
  %.121 = phi i32 [ -541478725, %10 ], [ %8, %1 ], [ -12, %23 ], [ %spec.select, %25 ]
  ret i32 %.121
}